target datalayout = "e-m:e-p270:32:32-p271:32:32-p272:64:64-i64:64-i128:128-f80:128-n8:16:32:64-S128"
target triple = "x86_64-pc-linux-gnu"

%struct.JSValue = type { %union.JSValueUnion, i64 }
%union.JSValueUnion = type { double }
%struct.JSSTDFile = type { ptr, i32, i32 }

@js_std_file_class_id = internal global i32 0, align 4
@stdout = external global ptr, align 8
@.str.41 = private unnamed_addr constant [20 x i8] c"invalid file handle\00", align 1

; Function Attrs: nounwind uwtable
define internal ptr @JS_ToCStringLen(ptr noundef %0, ptr noundef %1, i64 %2, i64 %3) #0 {
  %5 = alloca %struct.JSValue, align 8
  %6 = alloca ptr, align 8
  %7 = alloca ptr, align 8
  %8 = getelementptr inbounds { i64, i64 }, ptr %5, i32 0, i32 0
  store i64 %2, ptr %8, align 8
  %9 = getelementptr inbounds { i64, i64 }, ptr %5, i32 0, i32 1
  store i64 %3, ptr %9, align 8
  store ptr %0, ptr %6, align 8
  store ptr %1, ptr %7, align 8
  %10 = load ptr, ptr %6, align 8
  %11 = load ptr, ptr %7, align 8
  %12 = getelementptr inbounds { i64, i64 }, ptr %5, i32 0, i32 0
  %13 = load i64, ptr %12, align 8
  %14 = getelementptr inbounds { i64, i64 }, ptr %5, i32 0, i32 1
  %15 = load i64, ptr %14, align 8
  %16 = call ptr @JS_ToCStringLen2(ptr noundef %10, ptr noundef %11, i64 %13, i64 %15, i32 noundef 0)
  ret ptr %16
}

; Function Attrs: nounwind uwtable
define internal ptr @js_std_file_get(ptr noundef %0, i64 %1, i64 %2) #0 {
  %4 = alloca ptr, align 8
  %5 = alloca %struct.JSValue, align 8
  %6 = alloca ptr, align 8
  %7 = alloca ptr, align 8
  %8 = alloca %struct.JSValue, align 8
  %9 = getelementptr inbounds { i64, i64 }, ptr %5, i32 0, i32 0
  store i64 %1, ptr %9, align 8
  %10 = getelementptr inbounds { i64, i64 }, ptr %5, i32 0, i32 1
  store i64 %2, ptr %10, align 8
  store ptr %0, ptr %6, align 8
  %11 = load ptr, ptr %6, align 8
  %12 = load i32, ptr @js_std_file_class_id, align 4
  %13 = getelementptr inbounds { i64, i64 }, ptr %5, i32 0, i32 0
  %14 = load i64, ptr %13, align 8
  %15 = getelementptr inbounds { i64, i64 }, ptr %5, i32 0, i32 1
  %16 = load i64, ptr %15, align 8
  %17 = call ptr @JS_GetOpaque2(ptr noundef %11, i64 %14, i64 %16, i32 noundef %12)
  store ptr %17, ptr %7, align 8
  %18 = load ptr, ptr %7, align 8
  %19 = icmp ne ptr %18, null
  br i1 %19, label %21, label %20

20:                                               ; preds = %3
  store ptr null, ptr %4, align 8
  br label %37

21:                                               ; preds = %3
  %22 = load ptr, ptr %7, align 8
  %23 = getelementptr inbounds %struct.JSSTDFile, ptr %22, i32 0, i32 0
  %24 = load ptr, ptr %23, align 8
  %25 = icmp ne ptr %24, null
  br i1 %25, label %33, label %26

26:                                               ; preds = %21
  %27 = load ptr, ptr %6, align 8
  %28 = call { i64, i64 } (ptr, ptr, ...) @JS_ThrowTypeError(ptr noundef %27, ptr noundef @.str.41)
  %29 = getelementptr inbounds { i64, i64 }, ptr %8, i32 0, i32 0
  %30 = extractvalue { i64, i64 } %28, 0
  store i64 %30, ptr %29, align 8
  %31 = getelementptr inbounds { i64, i64 }, ptr %8, i32 0, i32 1
  %32 = extractvalue { i64, i64 } %28, 1
  store i64 %32, ptr %31, align 8
  store ptr null, ptr %4, align 8
  br label %37

33:                                               ; preds = %21
  %34 = load ptr, ptr %7, align 8
  %35 = getelementptr inbounds %struct.JSSTDFile, ptr %34, i32 0, i32 0
  %36 = load ptr, ptr %35, align 8
  store ptr %36, ptr %4, align 8
  br label %37

37:                                               ; preds = %33, %26, %20
  %38 = load ptr, ptr %4, align 8
  ret ptr %38
}

; Function Attrs: nounwind uwtable
define internal { i64, i64 } @js_std_file_puts(ptr noundef %0, i64 %1, i64 %2, i32 noundef %3, ptr noundef %4, i32 noundef %5) #0 {
  %7 = alloca %struct.JSValue, align 8
  %8 = alloca %struct.JSValue, align 8
  %9 = alloca ptr, align 8
  %10 = alloca i32, align 4
  %11 = alloca ptr, align 8
  %12 = alloca i32, align 4
  %13 = alloca ptr, align 8
  %14 = alloca i32, align 4
  %15 = alloca ptr, align 8
  %16 = alloca i64, align 8
  %17 = getelementptr inbounds { i64, i64 }, ptr %8, i32 0, i32 0
  store i64 %1, ptr %17, align 8
  %18 = getelementptr inbounds { i64, i64 }, ptr %8, i32 0, i32 1
  store i64 %2, ptr %18, align 8
  store ptr %0, ptr %9, align 8
  store i32 %3, ptr %10, align 4
  store ptr %4, ptr %11, align 8
  store i32 %5, ptr %12, align 4
  %19 = load i32, ptr %12, align 4
  %20 = icmp eq i32 %19, 0
  br i1 %20, label %21, label %23

21:                                               ; preds = %6
  %22 = load ptr, ptr @stdout, align 8
  store ptr %22, ptr %13, align 8
  br label %36

23:                                               ; preds = %6
  %24 = load ptr, ptr %9, align 8
  %25 = getelementptr inbounds { i64, i64 }, ptr %8, i32 0, i32 0
  %26 = load i64, ptr %25, align 8
  %27 = getelementptr inbounds { i64, i64 }, ptr %8, i32 0, i32 1
  %28 = load i64, ptr %27, align 8
  %29 = call ptr @js_std_file_get(ptr noundef %24, i64 %26, i64 %28)
  store ptr %29, ptr %13, align 8
  %30 = load ptr, ptr %13, align 8
  %31 = icmp ne ptr %30, null
  br i1 %31, label %35, label %32

32:                                               ; preds = %23
  %33 = getelementptr inbounds %struct.JSValue, ptr %7, i32 0, i32 0
  store i32 0, ptr %33, align 8
  %34 = getelementptr inbounds %struct.JSValue, ptr %7, i32 0, i32 1
  store i64 6, ptr %34, align 8
  br label %70

35:                                               ; preds = %23
  br label %36

36:                                               ; preds = %35, %21
  store i32 0, ptr %14, align 4
  br label %37

37:                                               ; preds = %64, %36
  %38 = load i32, ptr %14, align 4
  %39 = load i32, ptr %10, align 4
  %40 = icmp slt i32 %38, %39
  br i1 %40, label %41, label %67

41:                                               ; preds = %37
  %42 = load ptr, ptr %9, align 8
  %43 = load ptr, ptr %11, align 8
  %44 = load i32, ptr %14, align 4
  %45 = sext i32 %44 to i64
  %46 = getelementptr %struct.JSValue, ptr %43, i64 %45
  %47 = getelementptr inbounds { i64, i64 }, ptr %46, i32 0, i32 0
  %48 = load i64, ptr %47, align 8
  %49 = getelementptr inbounds { i64, i64 }, ptr %46, i32 0, i32 1
  %50 = load i64, ptr %49, align 8
  %51 = call ptr @JS_ToCStringLen(ptr noundef %42, ptr noundef %16, i64 %48, i64 %50)
  store ptr %51, ptr %15, align 8
  %52 = load ptr, ptr %15, align 8
  %53 = icmp ne ptr %52, null
  br i1 %53, label %57, label %54

54:                                               ; preds = %41
  %55 = getelementptr inbounds %struct.JSValue, ptr %7, i32 0, i32 0
  store i32 0, ptr %55, align 8
  %56 = getelementptr inbounds %struct.JSValue, ptr %7, i32 0, i32 1
  store i64 6, ptr %56, align 8
  br label %70

57:                                               ; preds = %41
  %58 = load ptr, ptr %15, align 8
  %59 = load i64, ptr %16, align 8
  %60 = load ptr, ptr %13, align 8
  %61 = call i64 @fwrite(ptr noundef %58, i64 noundef 1, i64 noundef %59, ptr noundef %60)
  %62 = load ptr, ptr %9, align 8
  %63 = load ptr, ptr %15, align 8
  call void @JS_FreeCString(ptr noundef %62, ptr noundef %63)
  br label %64

64:                                               ; preds = %57
  %65 = load i32, ptr %14, align 4
  %66 = add i32 %65, 1
  store i32 %66, ptr %14, align 4
  br label %37, !llvm.loop !15

67:                                               ; preds = %37
  %68 = getelementptr inbounds %struct.JSValue, ptr %7, i32 0, i32 0
  store i32 0, ptr %68, align 8
  %69 = getelementptr inbounds %struct.JSValue, ptr %7, i32 0, i32 1
  store i64 3, ptr %69, align 8
  br label %70

70:                                               ; preds = %67, %54, %32
  %71 = load { i64, i64 }, ptr %7, align 8
  ret { i64, i64 } %71
}