; Function Attrs: nounwind uwtable
define internal { i64, i64 } @js_std_file_puts(ptr noundef %0, i64 %1, i64 %2, i32 noundef %3, ptr nocapture noundef readonly %4, i32 noundef %5) #0 {
  %7 = alloca i64, align 8
  %8 = icmp eq i32 %5, 0
  br i1 %8, label %9, label %11

9:                                                ; preds = %6
  %10 = load ptr, ptr @stdout, align 8
  br label %js_std_file_get.exit

11:                                               ; preds = %6
  %12 = load i32, ptr @js_std_file_class_id, align 4
  %13 = tail call ptr @JS_GetOpaque2(ptr noundef %0, i64 %1, i64 %2, i32 noundef %12) #29
  %.not.i = icmp eq ptr %13, null
  br i1 %.not.i, label %js_std_file_get.exit.thread, label %14

14:                                               ; preds = %11
  %15 = load ptr, ptr %13, align 8
  %.not9.i = icmp eq ptr %15, null
  br i1 %.not9.i, label %16, label %js_std_file_get.exit

16:                                               ; preds = %14
  %17 = tail call { i64, i64 } (ptr, ptr, ...) @JS_ThrowTypeError(ptr noundef %0, ptr noundef nonnull @.str.41) #29
  br label %js_std_file_get.exit.thread

js_std_file_get.exit:                             ; preds = %14, %9
  %.016 = phi ptr [ %10, %9 ], [ %15, %14 ]
  %18 = icmp sgt i32 %3, 0
  br i1 %18, label %.lr.ph.preheader, label %js_std_file_get.exit.thread

.lr.ph.preheader:                                 ; preds = %js_std_file_get.exit
  %wide.trip.count = zext nneg i32 %3 to i64
  br label %.lr.ph

.lr.ph:                                           ; preds = %.lr.ph.preheader, %24
  %indvars.iv = phi i64 [ 0, %.lr.ph.preheader ], [ %indvars.iv.next, %24 ]
  %19 = getelementptr %struct.JSValue, ptr %4, i64 %indvars.iv
  %20 = load i64, ptr %19, align 8
  %21 = getelementptr inbounds i8, ptr %19, i64 8
  %22 = load i64, ptr %21, align 8
  %23 = call ptr @JS_ToCStringLen2(ptr noundef %0, ptr noundef nonnull %7, i64 %20, i64 %22, i32 noundef 0) #29
  %.not19 = icmp eq ptr %23, null
  br i1 %.not19, label %js_std_file_get.exit.thread, label %24

24:                                               ; preds = %.lr.ph
  %25 = load i64, ptr %7, align 8
  %26 = call i64 @fwrite(ptr noundef nonnull %23, i64 noundef 1, i64 noundef %25, ptr noundef %.016)
  call void @JS_FreeCString(ptr noundef %0, ptr noundef nonnull %23) #29
  %indvars.iv.next = add nuw nsw i64 %indvars.iv, 1
  %exitcond.not = icmp eq i64 %indvars.iv.next, %wide.trip.count
  br i1 %exitcond.not, label %js_std_file_get.exit.thread, label %.lr.ph, !llvm.loop !18

js_std_file_get.exit.thread:                      ; preds = %.lr.ph, %24, %js_std_file_get.exit, %11, %16
  %.sroa.4.sroa.1.0 = phi i64 [ 6, %16 ], [ 6, %11 ], [ 3, %js_std_file_get.exit ], [ 6, %.lr.ph ], [ 3, %24 ]
  %.fca.1.insert = insertvalue { i64, i64 } { i64 0, i64 poison }, i64 %.sroa.4.sroa.1.0, 1
  ret { i64, i64 } %.fca.1.insert
}